target datalayout = "e-m:e-p270:32:32-p271:32:32-p272:64:64-i64:64-i128:128-f80:128-n8:16:32:64-S128"
target triple = "x86_64-pc-linux-gnu"

%struct.LogicalRepWorker = type { i32, i64, i8, i16, ptr, i32, i32, i32, i32, i8, i64, i8, ptr, i32, i8, i64, i64, i64, i64, i64 }

@MyLogicalRepWorker = external global ptr, align 8
@.str.68 = private unnamed_addr constant [14 x i8] c"%u-%u.changes\00", align 1
@.str.69 = private unnamed_addr constant [15 x i8] c"%u-%u.subxacts\00", align 1

; Function Attrs: inlinehint nounwind uwtable
define internal void @subxact_filename(ptr noundef %0, i32 noundef %1, i32 noundef %2) #3 {
  %4 = alloca ptr, align 8
  %5 = alloca i32, align 4
  %6 = alloca i32, align 4
  store ptr %0, ptr %4, align 8
  store i32 %1, ptr %5, align 4
  store i32 %2, ptr %6, align 4
  %7 = load ptr, ptr %4, align 8
  %8 = load i32, ptr %5, align 4
  %9 = load i32, ptr %6, align 4
  %10 = call i32 (ptr, i64, ptr, ...) @pg_snprintf(ptr noundef %7, i64 noundef 1024, ptr noundef @.str.69, i32 noundef %8, i32 noundef %9)
  ret void
}

; Function Attrs: inlinehint nounwind uwtable
define internal void @changes_filename(ptr noundef %0, i32 noundef %1, i32 noundef %2) #3 {
  %4 = alloca ptr, align 8
  %5 = alloca i32, align 4
  %6 = alloca i32, align 4
  store ptr %0, ptr %4, align 8
  store i32 %1, ptr %5, align 4
  store i32 %2, ptr %6, align 4
  %7 = load ptr, ptr %4, align 8
  %8 = load i32, ptr %5, align 4
  %9 = load i32, ptr %6, align 4
  %10 = call i32 (ptr, i64, ptr, ...) @pg_snprintf(ptr noundef %7, i64 noundef 1024, ptr noundef @.str.68, i32 noundef %8, i32 noundef %9)
  ret void
}

; Function Attrs: nounwind uwtable
define dso_local void @stream_cleanup_files(i32 noundef %0, i32 noundef %1) #0 {
  %3 = alloca i32, align 4
  %4 = alloca i32, align 4
  %5 = alloca [1024 x i8], align 16
  store i32 %0, ptr %3, align 4
  store i32 %1, ptr %4, align 4
  call void @llvm.lifetime.start.p0(i64 1024, ptr %5) #12
  %6 = getelementptr inbounds [1024 x i8], ptr %5, i64 0, i64 0
  %7 = load i32, ptr %3, align 4
  %8 = load i32, ptr %4, align 4
  call void @changes_filename(ptr noundef %6, i32 noundef %7, i32 noundef %8)
  %9 = load ptr, ptr @MyLogicalRepWorker, align 8
  %10 = getelementptr inbounds nuw %struct.LogicalRepWorker, ptr %9, i32 0, i32 12
  %11 = load ptr, ptr %10, align 8
  %12 = getelementptr inbounds [1024 x i8], ptr %5, i64 0, i64 0
  call void @BufFileDeleteFileSet(ptr noundef %11, ptr noundef %12, i1 noundef zeroext false)
  %13 = getelementptr inbounds [1024 x i8], ptr %5, i64 0, i64 0
  %14 = load i32, ptr %3, align 4
  %15 = load i32, ptr %4, align 4
  call void @subxact_filename(ptr noundef %13, i32 noundef %14, i32 noundef %15)
  %16 = load ptr, ptr @MyLogicalRepWorker, align 8
  %17 = getelementptr inbounds nuw %struct.LogicalRepWorker, ptr %16, i32 0, i32 12
  %18 = load ptr, ptr %17, align 8
  %19 = getelementptr inbounds [1024 x i8], ptr %5, i64 0, i64 0
  call void @BufFileDeleteFileSet(ptr noundef %18, ptr noundef %19, i1 noundef zeroext true)
  call void @llvm.lifetime.end.p0(i64 1024, ptr %5) #12
  ret void
}