; Function Attrs: nounwind uwtable
define dso_local void @stream_cleanup_files(i32 noundef %0, i32 noundef %1) local_unnamed_addr #0 {
  %3 = alloca [1024 x i8], align 16
  call void @llvm.lifetime.start.p0(i64 1024, ptr nonnull %3) #17
  %4 = call i32 (ptr, i64, ptr, ...) @pg_snprintf(ptr noundef nonnull %3, i64 noundef 1024, ptr noundef nonnull @.str.68, i32 noundef %0, i32 noundef %1) #17
  %5 = load ptr, ptr @MyLogicalRepWorker, align 8
  %6 = getelementptr inbounds nuw i8, ptr %5, i64 72
  %7 = load ptr, ptr %6, align 8
  call void @BufFileDeleteFileSet(ptr noundef %7, ptr noundef nonnull %3, i1 noundef zeroext false) #17
  %8 = call i32 (ptr, i64, ptr, ...) @pg_snprintf(ptr noundef nonnull %3, i64 noundef 1024, ptr noundef nonnull @.str.69, i32 noundef %0, i32 noundef %1) #17
  %9 = load ptr, ptr @MyLogicalRepWorker, align 8
  %10 = getelementptr inbounds nuw i8, ptr %9, i64 72
  %11 = load ptr, ptr %10, align 8
  call void @BufFileDeleteFileSet(ptr noundef %11, ptr noundef nonnull %3, i1 noundef zeroext true) #17
  call void @llvm.lifetime.end.p0(i64 1024, ptr nonnull %3) #17
  ret void
}